; Function Attrs: mustprogress nofree norecurse nosync nounwind willreturn memory(read, inaccessiblemem: none) uwtable
define i64 @_Z17computeNumSettlesRK22InteractionDefinitions(ptr nocapture noundef nonnull readonly align 8 dereferenceable(2736) %0) local_unnamed_addr #11 {
  %2 = load i32, ptr getelementptr inbounds ([94 x %struct.t_interaction_function], ptr @interaction_function, i64 0, i64 64, i32 2), align 16
  %3 = add nsw i32 %2, 1
  %4 = getelementptr inbounds i8, ptr %0, i64 1600
  %5 = getelementptr inbounds i8, ptr %0, i64 1608
  %6 = load ptr, ptr %5, align 8
  %7 = load ptr, ptr %4, align 8
  %8 = ptrtoint ptr %6 to i64
  %9 = ptrtoint ptr %7 to i64
  %10 = sub i64 %8, %9
  %11 = lshr exact i64 %10, 2
  %12 = trunc i64 %11 to i32
  %13 = sdiv i32 %12, %3
  %.sroa.2.0.insert.ext = zext i32 %3 to i64
  %.sroa.2.0.insert.shift = shl nuw i64 %.sroa.2.0.insert.ext, 32
  %.sroa.0.0.insert.ext = zext i32 %13 to i64
  %.sroa.0.0.insert.insert = or disjoint i64 %.sroa.2.0.insert.shift, %.sroa.0.0.insert.ext
  ret i64 %.sroa.0.0.insert.insert
}